; Function Attrs: null_pointer_is_valid sspstrong uwtable
define internal i32 @dissect_camel_ResultArgument(i1 zeroext %0, ptr noundef %1, i32 noundef %2, ptr noundef readonly captures(none) %3, ptr noundef %4, i32 %5) #0 {
  %7 = alloca %struct._asn1_ctx_t, align 8
  %8 = alloca %struct._asn1_ctx_t, align 8
  %9 = load i32, ptr @opcode, align 4
  %10 = getelementptr inbounds nuw i8, ptr %3, i64 16
  %11 = load ptr, ptr %10, align 8
  switch i32 %9, label %20 [
    i32 48, label %12
    i32 32, label %16
  ]

12:                                               ; preds = %6
  call void @llvm.lifetime.start.p0(i64 208, ptr nonnull %8) #12
  call void @asn1_ctx_init(ptr noundef nonnull %8, i32 noundef 0, i1 noundef zeroext true, ptr noundef %11)
  %13 = load i32, ptr @hf_camel_ReceivedInformationArg_PDU, align 4
  %14 = load i32, ptr @ett_camel_ReceivedInformationArg, align 4
  %15 = call i32 @dissect_ber_choice(ptr noundef nonnull %8, ptr noundef %4, ptr noundef %1, i32 noundef 0, ptr noundef nonnull @ReceivedInformationArg_choice, i32 noundef %13, i32 noundef %14, ptr noundef null)
  call void @llvm.lifetime.end.p0(i64 208, ptr nonnull %8) #12
  br label %dissect_returnResultData.exit

16:                                               ; preds = %6
  call void @llvm.lifetime.start.p0(i64 208, ptr nonnull %7) #12
  call void @asn1_ctx_init(ptr noundef nonnull %7, i32 noundef 0, i1 noundef zeroext true, ptr noundef %11)
  %17 = load i32, ptr @hf_camel_InitiateCallAttemptRes_PDU, align 4
  %18 = load i32, ptr @ett_camel_InitiateCallAttemptRes, align 4
  %19 = call i32 @dissect_ber_sequence(i1 noundef zeroext false, ptr noundef nonnull %7, ptr noundef %4, ptr noundef %1, i32 noundef 0, ptr noundef nonnull @InitiateCallAttemptRes_sequence, i32 noundef %17, i32 noundef %18)
  call void @llvm.lifetime.end.p0(i64 208, ptr nonnull %7) #12
  br label %dissect_returnResultData.exit

20:                                               ; preds = %6
  %21 = tail call ptr (ptr, ptr, ptr, ptr, i32, i32, ptr, ...) @proto_tree_add_expert_format(ptr noundef %4, ptr noundef %11, ptr noundef nonnull @ei_camel_unknown_returnResultData, ptr noundef %1, i32 noundef %2, i32 noundef -1, ptr noundef nonnull @.str.1670, i32 noundef %9)
  br label %dissect_returnResultData.exit

dissect_returnResultData.exit:                    ; preds = %12, %16, %20
  %.0.i = phi i32 [ %2, %20 ], [ %19, %16 ], [ %15, %12 ]
  ret i32 %.0.i
}